; Function Attrs: mustprogress nounwind uwtable
define range(i32 0, -65535) i32 @_ZNK8WasmEdge4Host4WASI5INode10sockSetOptE23__wasi_sock_opt_level_t20__wasi_sock_opt_so_tN5cxx204spanIKhLm18446744073709551615EEE(ptr noundef nonnull readonly align 8 captures(none) dereferenceable(200) %0, i32 noundef %1, i32 noundef %2, ptr %3, i64 %4) local_unnamed_addr #0 align 2 personality ptr @__gxx_personality_v0 {
switch.lookup:
  %5 = sext i32 %2 to i64
  %switch.gep = getelementptr inbounds [15 x i32], ptr @switch.table._ZNK8WasmEdge4Host4WASI5INode10sockSetOptE23__wasi_sock_opt_level_t20__wasi_sock_opt_so_tN5cxx204spanIKhLm18446744073709551615EEE, i64 0, i64 %5
  %switch.load = load i32, ptr %switch.gep, align 4
  %6 = load i32, ptr %0, align 8
  %7 = trunc i64 %4 to i32
  %8 = tail call i32 @setsockopt(i32 noundef %6, i32 noundef 1, i32 noundef %switch.load, ptr noundef %3, i32 noundef %7) #24
  %9 = icmp slt i32 %8, 0
  br i1 %9, label %10, label %16

10:                                               ; preds = %switch.lookup
  %11 = tail call ptr @__errno_location() #25
  %12 = load i32, ptr %11, align 4
  %13 = tail call noundef zeroext i16 @_ZN8WasmEdge4Host4WASI6detail9fromErrNoEi(i32 noundef %12) #24
  %14 = zext i16 %13 to i32
  %15 = shl nuw i32 %14, 16
  br label %16

16:                                               ; preds = %switch.lookup, %10
  %.sroa.06.0.insert.insert = phi i32 [ %15, %10 ], [ 1, %switch.lookup ]
  ret i32 %.sroa.06.0.insert.insert
}